; Function Attrs: mustprogress uwtable
define hidden void @_ZN4cvc58internal6theory11quantifiers16EnumValueManager15notifyCandidateEb(ptr nocapture noundef nonnull align 8 dereferenceable(120) %this, i1 noundef zeroext %modelSuccess) local_unnamed_addr #3 align 2 personality ptr @__gxx_personality_v0 {
entry:
  %ref.tmp = alloca %"class.cvc5::internal::NodeTemplate", align 8
  tail call void @llvm.experimental.noalias.scope.decl(metadata !44)
  %0 = load ptr, ptr @_ZN4cvc58internal12NodeTemplateILb1EE6s_nullE, align 8, !noalias !44
  store ptr %0, ptr %ref.tmp, align 8, !alias.scope !44
  %bf.load.i.i.i = load i64, ptr %0, align 8, !noalias !44
  %bf.lshr.i.i.i = lshr i64 %bf.load.i.i.i, 40
  %1 = trunc i64 %bf.lshr.i.i.i to i32
  %bf.cast.i.i.i = and i32 %1, 1048575
  %cmp.i.i.i = icmp ult i32 %bf.cast.i.i.i, 1048574
  br i1 %cmp.i.i.i, label %if.then.i.i.i, label %if.else.i.i.i

if.then.i.i.i:                                    ; preds = %entry
  %bf.value.i.i.i = add i64 %bf.load.i.i.i, 1099511627776
  %bf.shl.i.i.i = and i64 %bf.value.i.i.i, 1152920405095219200
  %bf.clear7.i.i.i = and i64 %bf.load.i.i.i, -1152920405095219201
  %bf.set.i.i.i = or disjoint i64 %bf.shl.i.i.i, %bf.clear7.i.i.i
  store i64 %bf.set.i.i.i, ptr %0, align 8, !noalias !44
  br label %_ZN4cvc58internal12NodeTemplateILb1EE4nullEv.exit

if.else.i.i.i:                                    ; preds = %entry
  %cmp12.i.i.i = icmp eq i32 %bf.cast.i.i.i, 1048574
  br i1 %cmp12.i.i.i, label %if.then13.i.i.i, label %_ZN4cvc58internal12NodeTemplateILb1EE4nullEv.exit

if.then13.i.i.i:                                  ; preds = %if.else.i.i.i
  %bf.set23.i.i.i = or i64 %bf.load.i.i.i, 1152920405095219200
  store i64 %bf.set23.i.i.i, ptr %0, align 8, !noalias !44
  tail call void @_ZN4cvc58internal4expr9NodeValue20markRefCountMaxedOutEv(ptr noundef nonnull align 8 dereferenceable(16) %0), !noalias !44
  br label %_ZN4cvc58internal12NodeTemplateILb1EE4nullEv.exit

_ZN4cvc58internal12NodeTemplateILb1EE4nullEv.exit: ; preds = %if.then.i.i.i, %if.else.i.i.i, %if.then13.i.i.i
  %d_evActiveGenWaiting = getelementptr inbounds i8, ptr %this, i64 104
  %2 = load ptr, ptr %d_evActiveGenWaiting, align 8
  %cmp.not.i = icmp eq ptr %2, %0
  br i1 %cmp.not.i, label %invoke.cont, label %if.then.i

if.then.i:                                        ; preds = %_ZN4cvc58internal12NodeTemplateILb1EE4nullEv.exit
  %bf.load.i.i = load i64, ptr %2, align 8
  %3 = and i64 %bf.load.i.i, 1152920405095219200
  %cmp.not.i.i = icmp eq i64 %3, 1152920405095219200
  br i1 %cmp.not.i.i, label %_ZN4cvc58internal4expr9NodeValue3decEv.exit.i, label %if.then.i.i

if.then.i.i:                                      ; preds = %if.then.i
  %bf.value.i.i = add i64 %bf.load.i.i, 1152920405095219200
  %bf.shl.i.i = and i64 %bf.value.i.i, 1152920405095219200
  %bf.clear7.i.i = and i64 %bf.load.i.i, -1152920405095219201
  %bf.set.i.i = or disjoint i64 %bf.shl.i.i, %bf.clear7.i.i
  store i64 %bf.set.i.i, ptr %2, align 8
  %cmp12.i.i = icmp eq i64 %bf.shl.i.i, 0
  br i1 %cmp12.i.i, label %if.then13.i.i, label %_ZN4cvc58internal4expr9NodeValue3decEv.exit.i

if.then13.i.i:                                    ; preds = %if.then.i.i
  invoke void @_ZN4cvc58internal4expr9NodeValue15markForDeletionEv(ptr noundef nonnull align 8 dereferenceable(16) %2)
          to label %_ZN4cvc58internal4expr9NodeValue3decEv.exit.i unwind label %lpad

_ZN4cvc58internal4expr9NodeValue3decEv.exit.i:    ; preds = %if.then13.i.i, %if.then.i.i, %if.then.i
  store ptr %0, ptr %d_evActiveGenWaiting, align 8
  %bf.load.i2.i = load i64, ptr %0, align 8
  %bf.lshr.i.i = lshr i64 %bf.load.i2.i, 40
  %4 = trunc i64 %bf.lshr.i.i to i32
  %bf.cast.i.i = and i32 %4, 1048575
  %cmp.i.i = icmp ult i32 %bf.cast.i.i, 1048574
  br i1 %cmp.i.i, label %if.then.i5.i, label %if.else.i.i

if.then.i5.i:                                     ; preds = %_ZN4cvc58internal4expr9NodeValue3decEv.exit.i
  %bf.value.i6.i = add i64 %bf.load.i2.i, 1099511627776
  %bf.shl.i7.i = and i64 %bf.value.i6.i, 1152920405095219200
  %bf.clear7.i8.i = and i64 %bf.load.i2.i, -1152920405095219201
  %bf.set.i9.i = or disjoint i64 %bf.shl.i7.i, %bf.clear7.i8.i
  store i64 %bf.set.i9.i, ptr %0, align 8
  br label %invoke.cont

if.else.i.i:                                      ; preds = %_ZN4cvc58internal4expr9NodeValue3decEv.exit.i
  %cmp12.i3.i = icmp eq i32 %bf.cast.i.i, 1048574
  br i1 %cmp12.i3.i, label %if.then13.i4.i, label %invoke.cont

if.then13.i4.i:                                   ; preds = %if.else.i.i
  %bf.set23.i.i = or i64 %bf.load.i2.i, 1152920405095219200
  store i64 %bf.set23.i.i, ptr %0, align 8
  invoke void @_ZN4cvc58internal4expr9NodeValue20markRefCountMaxedOutEv(ptr noundef nonnull align 8 dereferenceable(16) %0)
          to label %invoke.cont unwind label %lpad

invoke.cont:                                      ; preds = %if.else.i.i, %if.then.i5.i, %_ZN4cvc58internal12NodeTemplateILb1EE4nullEv.exit, %if.then13.i4.i
  %bf.load.i.i2 = load i64, ptr %0, align 8
  %5 = and i64 %bf.load.i.i2, 1152920405095219200
  %cmp.not.i.i3 = icmp eq i64 %5, 1152920405095219200
  br i1 %cmp.not.i.i3, label %_ZN4cvc58internal12NodeTemplateILb1EED2Ev.exit, label %if.then.i.i4

if.then.i.i4:                                     ; preds = %invoke.cont
  %bf.value.i.i5 = add i64 %bf.load.i.i2, 1152920405095219200
  %bf.shl.i.i6 = and i64 %bf.value.i.i5, 1152920405095219200
  %bf.clear7.i.i7 = and i64 %bf.load.i.i2, -1152920405095219201
  %bf.set.i.i8 = or disjoint i64 %bf.shl.i.i6, %bf.clear7.i.i7
  store i64 %bf.set.i.i8, ptr %0, align 8
  %cmp12.i.i9 = icmp eq i64 %bf.shl.i.i6, 0
  br i1 %cmp12.i.i9, label %if.then13.i.i10, label %_ZN4cvc58internal12NodeTemplateILb1EED2Ev.exit

if.then13.i.i10:                                  ; preds = %if.then.i.i4
  invoke void @_ZN4cvc58internal4expr9NodeValue15markForDeletionEv(ptr noundef nonnull align 8 dereferenceable(16) %0)
          to label %_ZN4cvc58internal12NodeTemplateILb1EED2Ev.exit unwind label %terminate.lpad.i

terminate.lpad.i:                                 ; preds = %if.then13.i.i10
  %6 = landingpad { ptr, i32 }
          catch ptr null
  %7 = extractvalue { ptr, i32 } %6, 0
  tail call void @__clang_call_terminate(ptr %7) #17
  unreachable

_ZN4cvc58internal12NodeTemplateILb1EED2Ev.exit:   ; preds = %invoke.cont, %if.then.i.i4, %if.then13.i.i10
  br i1 %modelSuccess, label %land.lhs.true, label %if.end

land.lhs.true:                                    ; preds = %_ZN4cvc58internal12NodeTemplateILb1EED2Ev.exit
  %d_eec = getelementptr inbounds i8, ptr %this, i64 88
  %8 = load ptr, ptr %d_eec, align 8
  %cmp.i.i11.not = icmp eq ptr %8, null
  br i1 %cmp.i.i11.not, label %if.end, label %if.then

if.then:                                          ; preds = %land.lhs.true
  tail call void @_ZN4cvc58internal6theory11quantifiers16ExampleEvalCache18clearEvaluationAllEv(ptr noundef nonnull align 8 dereferenceable(144) %8)
  br label %if.end

lpad:                                             ; preds = %if.then13.i4.i, %if.then13.i.i
  %9 = landingpad { ptr, i32 }
          cleanup
  call void @_ZN4cvc58internal12NodeTemplateILb1EED2Ev(ptr noundef nonnull align 8 dereferenceable(8) %ref.tmp) #18
  resume { ptr, i32 } %9

if.end:                                           ; preds = %if.then, %land.lhs.true, %_ZN4cvc58internal12NodeTemplateILb1EED2Ev.exit
  ret void
}